target datalayout = "e-m:e-p270:32:32-p271:32:32-p272:64:64-i64:64-i128:128-f80:128-n8:16:32:64-S128"
target triple = "x86_64-pc-linux-gnu"

%struct._h248_curr_info_t = type { ptr, ptr, ptr, ptr, ptr, ptr, ptr, ptr, ptr, ptr }
%struct._asn1_ctx_t = type { i32, i32, i8, ptr, ptr, ptr, ptr, ptr, %struct.anon.2, %struct.anon.5, %struct.anon.6, ptr }
%struct.anon.2 = type { i32, i8, i8, i8, ptr, ptr, i32, i32, ptr, ptr, ptr, %union.anon }
%union.anon = type { %struct.anon.3 }
%struct.anon.3 = type { ptr }
%struct.anon.5 = type { ptr, ptr, ptr }
%struct.anon.6 = type { i32, i8, ptr, i32, i32, ptr, ptr, ptr, %union.anon.7 }
%union.anon.7 = type { %struct.anon.8 }
%struct.anon.8 = type { ptr }

@ett_h248_ServiceChangeRequest = internal global i32 0, align 4
@keep_persistent_data = internal global i32 0, align 4
@h248_tap = internal global i32 0, align 4
@curr_info = internal global %struct._h248_curr_info_t zeroinitializer, align 8

; Function Attrs: nounwind uwtable
define internal i32 @dissect_h248_ServiceChangeRequest(i1 noundef zeroext %0, ptr noundef %1, i32 noundef %2, ptr noundef %3, ptr noundef %4, i32 noundef %5) #0 {
  %7 = alloca i8, align 1
  %8 = alloca ptr, align 8
  %9 = alloca i32, align 4
  %10 = alloca ptr, align 8
  %11 = alloca ptr, align 8
  %12 = alloca i32, align 4
  %13 = zext i1 %0 to i8
  store i8 %13, ptr %7, align 1
  store ptr %1, ptr %8, align 8
  store i32 %2, ptr %9, align 4
  store ptr %3, ptr %10, align 8
  store ptr %4, ptr %11, align 8
  store i32 %5, ptr %12, align 4
  %14 = getelementptr inbounds %struct._h248_curr_info_t, ptr @curr_info, i32 0, i32 2
  %15 = load ptr, ptr %14, align 8
  %16 = getelementptr inbounds %struct._h248_curr_info_t, ptr @curr_info, i32 0, i32 1
  %17 = load ptr, ptr %16, align 8
  %18 = load ptr, ptr @curr_info, align 8
  %19 = load i32, ptr %9, align 4
  %20 = load ptr, ptr %10, align 8
  %21 = getelementptr inbounds %struct._asn1_ctx_t, ptr %20, i32 0, i32 3
  %22 = load ptr, ptr %21, align 8
  %23 = load i32, ptr @keep_persistent_data, align 4
  %24 = call ptr @gcp_cmd(ptr noundef %15, ptr noundef %17, ptr noundef %18, i32 noundef 8, i32 noundef %19, ptr noundef %22, i32 noundef %23)
  %25 = getelementptr inbounds %struct._h248_curr_info_t, ptr @curr_info, i32 0, i32 4
  store ptr %24, ptr %25, align 8
  br label %26

26:                                               ; preds = %6
  %27 = load i32, ptr @keep_persistent_data, align 4
  %28 = icmp ne i32 %27, 0
  br i1 %28, label %29, label %40

29:                                               ; preds = %26
  %30 = getelementptr inbounds %struct._h248_curr_info_t, ptr @curr_info, i32 0, i32 4
  %31 = load ptr, ptr %30, align 8
  %32 = icmp ne ptr %31, null
  br i1 %32, label %33, label %40

33:                                               ; preds = %29
  %34 = load i32, ptr @h248_tap, align 4
  %35 = load ptr, ptr %10, align 8
  %36 = getelementptr inbounds %struct._asn1_ctx_t, ptr %35, i32 0, i32 3
  %37 = load ptr, ptr %36, align 8
  %38 = getelementptr inbounds %struct._h248_curr_info_t, ptr @curr_info, i32 0, i32 4
  %39 = load ptr, ptr %38, align 8
  call void @tap_queue_packet(i32 noundef %34, ptr noundef %37, ptr noundef %39)
  br label %40

40:                                               ; preds = %33, %29, %26
  br label %41

41:                                               ; preds = %40
  %42 = load i8, ptr %7, align 1
  %43 = trunc i8 %42 to i1
  %44 = load ptr, ptr %10, align 8
  %45 = load ptr, ptr %11, align 8
  %46 = load ptr, ptr %8, align 8
  %47 = load i32, ptr %9, align 4
  %48 = load i32, ptr %12, align 4
  %49 = load i32, ptr @ett_h248_ServiceChangeRequest, align 4
  %50 = call i32 @dissect_ber_sequence(i1 noundef zeroext %43, ptr noundef %44, ptr noundef %45, ptr noundef %46, i32 noundef %47, ptr noundef @ServiceChangeRequest_sequence, i32 noundef %48, i32 noundef %49)
  store i32 %50, ptr %9, align 4
  %51 = getelementptr inbounds %struct._h248_curr_info_t, ptr @curr_info, i32 0, i32 4
  store ptr null, ptr %51, align 8
  %52 = load i32, ptr %9, align 4
  ret i32 %52
}